target datalayout = "e-m:e-p270:32:32-p271:32:32-p272:64:64-i64:64-i128:128-f80:128-n8:16:32:64-S128"
target triple = "x86_64-pc-linux-gnu"

; Function Attrs: nounwind uwtable
define internal ptr @Unroll1ByteReversed(ptr noundef %0, ptr noundef %1, ptr noundef %2, i32 noundef %3) #0 {
  %5 = alloca ptr, align 8
  %6 = alloca ptr, align 8
  %7 = alloca ptr, align 8
  %8 = alloca i32, align 4
  store ptr %0, ptr %5, align 8
  store ptr %1, ptr %6, align 8
  store ptr %2, ptr %7, align 8
  store i32 %3, ptr %8, align 4
  %9 = load ptr, ptr %7, align 8
  %10 = load i8, ptr %9, align 1
  %11 = zext i8 %10 to i16
  %12 = zext i16 %11 to i32
  %13 = shl i32 %12, 8
  %14 = load ptr, ptr %7, align 8
  %15 = load i8, ptr %14, align 1
  %16 = zext i8 %15 to i32
  %17 = or i32 %13, %16
  %18 = trunc i32 %17 to i16
  %19 = zext i16 %18 to i32
  %20 = sub nsw i32 65535, %19
  %21 = trunc i32 %20 to i16
  %22 = load ptr, ptr %6, align 8
  %23 = getelementptr inbounds i16, ptr %22, i64 2
  store i16 %21, ptr %23, align 2
  %24 = load ptr, ptr %6, align 8
  %25 = getelementptr inbounds i16, ptr %24, i64 1
  store i16 %21, ptr %25, align 2
  %26 = load ptr, ptr %6, align 8
  %27 = getelementptr inbounds i16, ptr %26, i64 0
  store i16 %21, ptr %27, align 2
  %28 = load ptr, ptr %7, align 8
  %29 = getelementptr inbounds i8, ptr %28, i32 1
  store ptr %29, ptr %7, align 8
  %30 = load ptr, ptr %7, align 8
  ret ptr %30
}