; Function Attrs: mustprogress nofree norecurse nosync nounwind willreturn memory(argmem: readwrite) uwtable
define internal nonnull ptr @Unroll1ByteReversed(ptr nocapture readnone %0, ptr nocapture noundef writeonly %1, ptr noundef readonly %2, i32 %3) #3 {
  %5 = load i8, ptr %2, align 1
  %6 = zext i8 %5 to i16
  %7 = shl nuw i16 %6, 8
  %8 = or disjoint i16 %7, %6
  %9 = xor i16 %8, -1
  %10 = getelementptr inbounds i8, ptr %1, i64 4
  store i16 %9, ptr %10, align 2
  %11 = getelementptr inbounds i8, ptr %1, i64 2
  store i16 %9, ptr %11, align 2
  store i16 %9, ptr %1, align 2
  %12 = getelementptr inbounds i8, ptr %2, i64 1
  ret ptr %12
}